; Function Attrs: nounwind uwtable
define hidden i32 @mbedtls_hmac_drbg_reseed(ptr noundef %0, ptr noundef readonly %1, i64 noundef %2) local_unnamed_addr #2 {
  %4 = alloca [384 x i8], align 16
  call void @llvm.lifetime.start.p0(i64 384, ptr nonnull %4) #12
  %5 = getelementptr inbounds nuw i8, ptr %0, i64 96
  %6 = load i64, ptr %5, align 8, !tbaa !16
  %7 = icmp ugt i64 %2, 256
  %8 = add i64 %6, %2
  %9 = icmp ugt i64 %8, 384
  %or.cond43.i = select i1 %7, i1 true, i1 %9
  br i1 %or.cond43.i, label %hmac_drbg_reseed_core.exit, label %.critedge.i

.critedge.i:                                      ; preds = %3
  call void @llvm.memset.p0.i64(ptr noundef nonnull align 16 dereferenceable(384) %4, i8 0, i64 384, i1 false)
  %10 = getelementptr inbounds nuw i8, ptr %0, i64 112
  %11 = load ptr, ptr %10, align 8, !tbaa !17
  %12 = getelementptr inbounds nuw i8, ptr %0, i64 120
  %13 = load ptr, ptr %12, align 8, !tbaa !18
  %14 = call i32 %11(ptr noundef %13, ptr noundef nonnull %4, i64 noundef %6) #12
  %.not.i = icmp eq i32 %14, 0
  br i1 %.not.i, label %15, label %hmac_drbg_reseed_core.exit

15:                                               ; preds = %.critedge.i
  %16 = load i64, ptr %5, align 8, !tbaa !16
  %17 = icmp ne ptr %1, null
  %18 = icmp ne i64 %2, 0
  %or.cond.i = and i1 %17, %18
  br i1 %or.cond.i, label %19, label %22

19:                                               ; preds = %15
  %20 = getelementptr inbounds nuw i8, ptr %4, i64 %16
  call void @llvm.memcpy.p0.p0.i64(ptr nonnull align 1 %20, ptr nonnull readonly align 1 %1, i64 %2, i1 false)
  %21 = add i64 %16, %2
  br label %22

22:                                               ; preds = %19, %15
  %.1.i = phi i64 [ %21, %19 ], [ %16, %15 ]
  %23 = call i32 @mbedtls_hmac_drbg_update(ptr noundef nonnull %0, ptr noundef nonnull %4, i64 noundef %.1.i)
  %.not41.i = icmp eq i32 %23, 0
  br i1 %.not41.i, label %24, label %26

24:                                               ; preds = %22
  %25 = getelementptr inbounds nuw i8, ptr %0, i64 88
  store i32 1, ptr %25, align 8, !tbaa !19
  br label %26

26:                                               ; preds = %24, %22
  call void @mbedtls_platform_zeroize(ptr noundef nonnull %4, i64 noundef %.1.i) #12
  br label %hmac_drbg_reseed_core.exit

hmac_drbg_reseed_core.exit:                       ; preds = %3, %.critedge.i, %26
  %.135.i = phi i32 [ %23, %26 ], [ -5, %3 ], [ -9, %.critedge.i ]
  call void @llvm.lifetime.end.p0(i64 384, ptr nonnull %4) #12
  ret i32 %.135.i
}